target datalayout = "e-m:e-p270:32:32-p271:32:32-p272:64:64-i64:64-i128:128-f80:128-n8:16:32:64-S128"
target triple = "x86_64-pc-linux-gnu"

%struct.checkout_metadata = type { ptr, %struct.object_id, %struct.object_id }
%struct.object_id = type { [32 x i8], i32 }
%struct.checkout = type { ptr, ptr, i32, ptr, ptr, %struct.checkout_metadata, i8 }
%struct.repository = type { ptr, ptr, ptr, ptr, ptr, %struct.strmap, %struct.strmap, %struct.repo_path_cache, ptr, ptr, ptr, ptr, %struct.repo_settings, ptr, ptr, ptr, ptr, ptr, ptr, i32, i32, i32, ptr, ptr, i32, i32, i8 }
%struct.strmap = type { %struct.hashmap, ptr, i8 }
%struct.hashmap = type { ptr, ptr, ptr, i32, i32, i32, i32, i8 }
%struct.repo_path_cache = type { ptr, ptr, ptr, ptr, ptr, ptr, ptr }
%struct.repo_settings = type { i32, i32, i32, i32, i32, i32, i32, i32, i32, i32, i32, i32, ptr, i32, i32, i32, i32, i32, i32, i32, i64, i64, i64 }
%struct.index_state = type { ptr, i32, i32, i32, i32, ptr, ptr, ptr, %struct.cache_time, i8, i32, %struct.hashmap, %struct.hashmap, %struct.object_id, ptr, ptr, ptr, ptr, ptr, ptr, ptr }
%struct.cache_time = type { i32, i32 }
%struct.cache_entry = type { %struct.hashmap_entry, %struct.stat_data, i32, i32, i32, i32, i32, %struct.object_id, [0 x i8] }
%struct.hashmap_entry = type { ptr, i32 }
%struct.stat_data = type { %struct.cache_time, %struct.cache_time, i32, i32, i32, i32, i32 }

@ignore_skip_worktree = internal global i32 0, align 4
@to_tempfile = internal global i32 -1, align 4
@checkout_stage = internal global i32 0, align 4
@the_repository = external global ptr, align 8
@state = internal global { ptr, ptr, i32, [4 x i8], ptr, ptr, %struct.checkout_metadata, i8, [7 x i8] } { ptr null, ptr @.str.24, i32 0, [4 x i8] zeroinitializer, ptr null, ptr null, %struct.checkout_metadata zeroinitializer, i8 0, [7 x i8] zeroinitializer }, align 8
@topath = internal global [4 x [26 x i8]] zeroinitializer, align 16
@stderr = external global ptr, align 8
@.str.38 = private unnamed_addr constant [24 x i8] c"git checkout-index: %s \00", align 1
@.str.39 = private unnamed_addr constant [20 x i8] c"is not in the cache\00", align 1
@.str.40 = private unnamed_addr constant [22 x i8] c"is a sparse directory\00", align 1
@.str.41 = private unnamed_addr constant [73 x i8] c"has skip-worktree enabled; use '--ignore-skip-worktree-bits' to checkout\00", align 1
@.str.42 = private unnamed_addr constant [27 x i8] c"does not exist at stage %d\00", align 1
@.str.43 = private unnamed_addr constant [12 x i8] c"is unmerged\00", align 1

; Function Attrs: inlinehint nounwind uwtable
define internal i32 @checkout_entry(ptr noundef %0, ptr noundef %1, ptr noundef %2, ptr noundef %3) #4 {
  %5 = alloca ptr, align 8
  %6 = alloca ptr, align 8
  %7 = alloca ptr, align 8
  %8 = alloca ptr, align 8
  store ptr %0, ptr %5, align 8, !tbaa !80
  store ptr %1, ptr %6, align 8, !tbaa !94
  store ptr %2, ptr %7, align 8, !tbaa !11
  store ptr %3, ptr %8, align 8, !tbaa !66
  %9 = load ptr, ptr %5, align 8, !tbaa !80
  %10 = load ptr, ptr %6, align 8, !tbaa !94
  %11 = load ptr, ptr %7, align 8, !tbaa !11
  %12 = load ptr, ptr %8, align 8, !tbaa !66
  %13 = call i32 @checkout_entry_ca(ptr noundef %9, ptr noundef null, ptr noundef %10, ptr noundef %11, ptr noundef %12)
  ret i32 %13
}

; Function Attrs: nounwind uwtable
define internal i32 @checkout_file(ptr noundef %0, ptr noundef %1) #0 {
  %3 = alloca i32, align 4
  %4 = alloca ptr, align 8
  %5 = alloca ptr, align 8
  %6 = alloca i32, align 4
  %7 = alloca i32, align 4
  %8 = alloca i32, align 4
  %9 = alloca i32, align 4
  %10 = alloca i32, align 4
  %11 = alloca i32, align 4
  %12 = alloca i32, align 4
  %13 = alloca ptr, align 8
  %14 = alloca i32, align 4
  store ptr %0, ptr %4, align 8, !tbaa !11
  store ptr %1, ptr %5, align 8, !tbaa !11
  call void @llvm.lifetime.start.p0(i64 4, ptr %6) #9
  %15 = load ptr, ptr %4, align 8, !tbaa !11
  %16 = call i64 @strlen(ptr noundef %15) #10
  %17 = trunc i64 %16 to i32
  store i32 %17, ptr %6, align 4, !tbaa !4
  call void @llvm.lifetime.start.p0(i64 4, ptr %7) #9
  %18 = load ptr, ptr @the_repository, align 8, !tbaa !13
  %19 = getelementptr inbounds nuw %struct.repository, ptr %18, i32 0, i32 15
  %20 = load ptr, ptr %19, align 8, !tbaa !47
  %21 = load ptr, ptr %4, align 8, !tbaa !11
  %22 = load i32, ptr %6, align 4, !tbaa !4
  %23 = call i32 @index_name_pos(ptr noundef %20, ptr noundef %21, i32 noundef %22)
  store i32 %23, ptr %7, align 4, !tbaa !4
  call void @llvm.lifetime.start.p0(i64 4, ptr %8) #9
  store i32 0, ptr %8, align 4, !tbaa !4
  call void @llvm.lifetime.start.p0(i64 4, ptr %9) #9
  store i32 0, ptr %9, align 4, !tbaa !4
  call void @llvm.lifetime.start.p0(i64 4, ptr %10) #9
  store i32 1, ptr %10, align 4, !tbaa !4
  call void @llvm.lifetime.start.p0(i64 4, ptr %11) #9
  store i32 0, ptr %11, align 4, !tbaa !4
  call void @llvm.lifetime.start.p0(i64 4, ptr %12) #9
  store i32 0, ptr %12, align 4, !tbaa !4
  %24 = load i32, ptr %7, align 4, !tbaa !4
  %25 = icmp slt i32 %24, 0
  br i1 %25, label %26, label %30

26:                                               ; preds = %2
  %27 = load i32, ptr %7, align 4, !tbaa !4
  %28 = sub nsw i32 0, %27
  %29 = sub nsw i32 %28, 1
  store i32 %29, ptr %7, align 4, !tbaa !4
  br label %30

30:                                               ; preds = %26, %2
  br label %31

31:                                               ; preds = %125, %123, %30
  %32 = load i32, ptr %7, align 4, !tbaa !4
  %33 = load ptr, ptr @the_repository, align 8, !tbaa !13
  %34 = getelementptr inbounds nuw %struct.repository, ptr %33, i32 0, i32 15
  %35 = load ptr, ptr %34, align 8, !tbaa !47
  %36 = getelementptr inbounds nuw %struct.index_state, ptr %35, i32 0, i32 2
  %37 = load i32, ptr %36, align 4, !tbaa !68
  %38 = icmp ult i32 %32, %37
  br i1 %38, label %39, label %126

39:                                               ; preds = %31
  call void @llvm.lifetime.start.p0(i64 8, ptr %13) #9
  %40 = load ptr, ptr @the_repository, align 8, !tbaa !13
  %41 = getelementptr inbounds nuw %struct.repository, ptr %40, i32 0, i32 15
  %42 = load ptr, ptr %41, align 8, !tbaa !47
  %43 = getelementptr inbounds nuw %struct.index_state, ptr %42, i32 0, i32 0
  %44 = load ptr, ptr %43, align 8, !tbaa !79
  %45 = load i32, ptr %7, align 4, !tbaa !4
  %46 = sext i32 %45 to i64
  %47 = getelementptr inbounds ptr, ptr %44, i64 %46
  %48 = load ptr, ptr %47, align 8, !tbaa !80
  store ptr %48, ptr %13, align 8, !tbaa !80
  %49 = load ptr, ptr %13, align 8, !tbaa !80
  %50 = getelementptr inbounds nuw %struct.cache_entry, ptr %49, i32 0, i32 5
  %51 = load i32, ptr %50, align 8, !tbaa !4
  %52 = load i32, ptr %6, align 4, !tbaa !4
  %53 = icmp ne i32 %51, %52
  br i1 %53, label %63, label %54

54:                                               ; preds = %39
  %55 = load ptr, ptr %13, align 8, !tbaa !80
  %56 = getelementptr inbounds nuw %struct.cache_entry, ptr %55, i32 0, i32 8
  %57 = getelementptr inbounds [0 x i8], ptr %56, i64 0, i64 0
  %58 = load ptr, ptr %4, align 8, !tbaa !11
  %59 = load i32, ptr %6, align 4, !tbaa !4
  %60 = sext i32 %59 to i64
  %61 = call i32 @memcmp(ptr noundef %57, ptr noundef %58, i64 noundef %60) #10
  %62 = icmp ne i32 %61, 0
  br i1 %62, label %63, label %64

63:                                               ; preds = %54, %39
  store i32 3, ptr %14, align 4
  br label %123

64:                                               ; preds = %54
  store i32 1, ptr %8, align 4, !tbaa !4
  %65 = load i32, ptr %7, align 4, !tbaa !4
  %66 = add nsw i32 %65, 1
  store i32 %66, ptr %7, align 4, !tbaa !4
  %67 = load ptr, ptr %13, align 8, !tbaa !80
  %68 = getelementptr inbounds nuw %struct.cache_entry, ptr %67, i32 0, i32 2
  %69 = load i32, ptr %68, align 4, !tbaa !4
  %70 = icmp eq i32 %69, 16384
  br i1 %70, label %71, label %72

71:                                               ; preds = %64
  store i32 3, ptr %14, align 4
  br label %123

72:                                               ; preds = %64
  store i32 1, ptr %9, align 4, !tbaa !4
  %73 = load i32, ptr @ignore_skip_worktree, align 4, !tbaa !4
  %74 = icmp ne i32 %73, 0
  br i1 %74, label %82, label %75

75:                                               ; preds = %72
  %76 = load ptr, ptr %13, align 8, !tbaa !80
  %77 = getelementptr inbounds nuw %struct.cache_entry, ptr %76, i32 0, i32 3
  %78 = load i32, ptr %77, align 8, !tbaa !4
  %79 = and i32 %78, 1073741824
  %80 = icmp ne i32 %79, 0
  br i1 %80, label %81, label %82

81:                                               ; preds = %75
  store i32 3, ptr %14, align 4
  br label %123

82:                                               ; preds = %75, %72
  store i32 0, ptr %10, align 4, !tbaa !4
  %83 = load ptr, ptr %13, align 8, !tbaa !80
  %84 = getelementptr inbounds nuw %struct.cache_entry, ptr %83, i32 0, i32 3
  %85 = load i32, ptr %84, align 8, !tbaa !4
  %86 = and i32 12288, %85
  %87 = lshr i32 %86, 12
  %88 = load i32, ptr @checkout_stage, align 4, !tbaa !4
  %89 = icmp ne i32 %87, %88
  br i1 %89, label %90, label %101

90:                                               ; preds = %82
  %91 = load i32, ptr @checkout_stage, align 4, !tbaa !4
  %92 = icmp ne i32 4, %91
  br i1 %92, label %100, label %93

93:                                               ; preds = %90
  %94 = load ptr, ptr %13, align 8, !tbaa !80
  %95 = getelementptr inbounds nuw %struct.cache_entry, ptr %94, i32 0, i32 3
  %96 = load i32, ptr %95, align 8, !tbaa !4
  %97 = and i32 12288, %96
  %98 = lshr i32 %97, 12
  %99 = icmp ne i32 %98, 0
  br i1 %99, label %101, label %100

100:                                              ; preds = %93, %90
  store i32 2, ptr %14, align 4
  br label %123, !llvm.loop !82

101:                                              ; preds = %93, %82
  store i32 1, ptr %11, align 4, !tbaa !4
  %102 = load ptr, ptr %13, align 8, !tbaa !80
  %103 = load i32, ptr @to_tempfile, align 4, !tbaa !4
  %104 = icmp ne i32 %103, 0
  br i1 %104, label %105, label %114

105:                                              ; preds = %101
  %106 = load ptr, ptr %13, align 8, !tbaa !80
  %107 = getelementptr inbounds nuw %struct.cache_entry, ptr %106, i32 0, i32 3
  %108 = load i32, ptr %107, align 8, !tbaa !4
  %109 = and i32 12288, %108
  %110 = lshr i32 %109, 12
  %111 = zext i32 %110 to i64
  %112 = getelementptr inbounds nuw [4 x [26 x i8]], ptr @topath, i64 0, i64 %111
  %113 = getelementptr inbounds [26 x i8], ptr %112, i64 0, i64 0
  br label %115

114:                                              ; preds = %101
  br label %115

115:                                              ; preds = %114, %105
  %116 = phi ptr [ %113, %105 ], [ null, %114 ]
  %117 = call i32 @checkout_entry(ptr noundef %102, ptr noundef @state, ptr noundef %116, ptr noundef null)
  %118 = icmp slt i32 %117, 0
  br i1 %118, label %119, label %122

119:                                              ; preds = %115
  %120 = load i32, ptr %12, align 4, !tbaa !4
  %121 = add nsw i32 %120, 1
  store i32 %121, ptr %12, align 4, !tbaa !4
  br label %122

122:                                              ; preds = %119, %115
  store i32 0, ptr %14, align 4
  br label %123

123:                                              ; preds = %122, %100, %81, %71, %63
  call void @llvm.lifetime.end.p0(i64 8, ptr %13) #9
  %124 = load i32, ptr %14, align 4
  switch i32 %124, label %192 [
    i32 0, label %125
    i32 3, label %126
    i32 2, label %31
  ]

125:                                              ; preds = %123
  br label %31, !llvm.loop !82

126:                                              ; preds = %123, %31
  %127 = load i32, ptr %11, align 4, !tbaa !4
  %128 = icmp ne i32 %127, 0
  br i1 %128, label %129, label %139

129:                                              ; preds = %126
  %130 = load i32, ptr @to_tempfile, align 4, !tbaa !4
  %131 = icmp ne i32 %130, 0
  br i1 %131, label %132, label %135

132:                                              ; preds = %129
  %133 = load ptr, ptr %4, align 8, !tbaa !11
  %134 = load ptr, ptr %5, align 8, !tbaa !11
  call void @write_tempfile_record(ptr noundef %133, ptr noundef %134)
  br label %135

135:                                              ; preds = %132, %129
  %136 = load i32, ptr %12, align 4, !tbaa !4
  %137 = icmp sgt i32 %136, 0
  %138 = select i1 %137, i32 -1, i32 0
  store i32 %138, ptr %3, align 4
  store i32 1, ptr %14, align 4
  br label %190

139:                                              ; preds = %126
  %140 = load i32, ptr %8, align 4, !tbaa !4
  %141 = icmp ne i32 %140, 0
  br i1 %141, label %142, label %146

142:                                              ; preds = %139
  %143 = load i32, ptr @checkout_stage, align 4, !tbaa !4
  %144 = icmp eq i32 %143, 4
  br i1 %144, label %145, label %146

145:                                              ; preds = %142
  store i32 0, ptr %3, align 4
  store i32 1, ptr %14, align 4
  br label %190

146:                                              ; preds = %142, %139
  %147 = load i8, ptr getelementptr inbounds nuw (%struct.checkout, ptr @state, i32 0, i32 6), align 8
  %148 = lshr i8 %147, 1
  %149 = and i8 %148, 1
  %150 = zext i8 %149 to i32
  %151 = icmp ne i32 %150, 0
  br i1 %151, label %189, label %152

152:                                              ; preds = %146
  %153 = load ptr, ptr @stderr, align 8, !tbaa !58
  %154 = load ptr, ptr %4, align 8, !tbaa !11
  %155 = call i32 (ptr, ptr, ...) @fprintf(ptr noundef %153, ptr noundef @.str.38, ptr noundef %154) #9
  %156 = load i32, ptr %8, align 4, !tbaa !4
  %157 = icmp ne i32 %156, 0
  br i1 %157, label %161, label %158

158:                                              ; preds = %152
  %159 = load ptr, ptr @stderr, align 8, !tbaa !58
  %160 = call i32 (ptr, ptr, ...) @fprintf(ptr noundef %159, ptr noundef @.str.39) #9
  br label %186

161:                                              ; preds = %152
  %162 = load i32, ptr %9, align 4, !tbaa !4
  %163 = icmp ne i32 %162, 0
  br i1 %163, label %167, label %164

164:                                              ; preds = %161
  %165 = load ptr, ptr @stderr, align 8, !tbaa !58
  %166 = call i32 (ptr, ptr, ...) @fprintf(ptr noundef %165, ptr noundef @.str.40) #9
  br label %185

167:                                              ; preds = %161
  %168 = load i32, ptr %10, align 4, !tbaa !4
  %169 = icmp ne i32 %168, 0
  br i1 %169, label %170, label %173

170:                                              ; preds = %167
  %171 = load ptr, ptr @stderr, align 8, !tbaa !58
  %172 = call i32 (ptr, ptr, ...) @fprintf(ptr noundef %171, ptr noundef @.str.41) #9
  br label %184

173:                                              ; preds = %167
  %174 = load i32, ptr @checkout_stage, align 4, !tbaa !4
  %175 = icmp ne i32 %174, 0
  br i1 %175, label %176, label %180

176:                                              ; preds = %173
  %177 = load ptr, ptr @stderr, align 8, !tbaa !58
  %178 = load i32, ptr @checkout_stage, align 4, !tbaa !4
  %179 = call i32 (ptr, ptr, ...) @fprintf(ptr noundef %177, ptr noundef @.str.42, i32 noundef %178) #9
  br label %183

180:                                              ; preds = %173
  %181 = load ptr, ptr @stderr, align 8, !tbaa !58
  %182 = call i32 (ptr, ptr, ...) @fprintf(ptr noundef %181, ptr noundef @.str.43) #9
  br label %183

183:                                              ; preds = %180, %176
  br label %184

184:                                              ; preds = %183, %170
  br label %185

185:                                              ; preds = %184, %164
  br label %186

186:                                              ; preds = %185, %158
  %187 = load ptr, ptr @stderr, align 8, !tbaa !58
  %188 = call i32 @fputc(i32 noundef 10, ptr noundef %187)
  br label %189

189:                                              ; preds = %186, %146
  store i32 -1, ptr %3, align 4
  store i32 1, ptr %14, align 4
  br label %190

190:                                              ; preds = %189, %145, %135
  call void @llvm.lifetime.end.p0(i64 4, ptr %12) #9
  call void @llvm.lifetime.end.p0(i64 4, ptr %11) #9
  call void @llvm.lifetime.end.p0(i64 4, ptr %10) #9
  call void @llvm.lifetime.end.p0(i64 4, ptr %9) #9
  call void @llvm.lifetime.end.p0(i64 4, ptr %8) #9
  call void @llvm.lifetime.end.p0(i64 4, ptr %7) #9
  call void @llvm.lifetime.end.p0(i64 4, ptr %6) #9
  %191 = load i32, ptr %3, align 4
  ret i32 %191

192:                                              ; preds = %123
  unreachable
}