; Function Attrs: nounwind uwtable
define internal fastcc range(i32 -1, 1) i32 @checkout_file(ptr noundef %0, ptr noundef %1) unnamed_addr #0 {
  %3 = tail call i64 @strlen(ptr noundef nonnull dereferenceable(1) %0) #14
  %4 = trunc i64 %3 to i32
  %5 = load ptr, ptr @the_repository, align 8, !tbaa !21
  %6 = getelementptr inbounds nuw i8, ptr %5, i64 384
  %7 = load ptr, ptr %6, align 8, !tbaa !41
  %8 = tail call i32 @index_name_pos(ptr noundef %7, ptr noundef nonnull %0, i32 noundef %4) #13
  %.lobit = ashr i32 %8, 31
  %spec.select = xor i32 %.lobit, %8
  %9 = load ptr, ptr @the_repository, align 8, !tbaa !21
  %10 = getelementptr inbounds nuw i8, ptr %9, i64 384
  %11 = load ptr, ptr %10, align 8, !tbaa !41
  %12 = getelementptr inbounds nuw i8, ptr %11, i64 12
  %13 = load i32, ptr %12, align 4, !tbaa !60
  %14 = icmp ult i32 %spec.select, %13
  br i1 %14, label %.lr.ph, label %.thread120

.lr.ph:                                           ; preds = %2
  %sext = shl i64 %3, 32
  %15 = ashr exact i64 %sext, 32
  %16 = zext i32 %spec.select to i64
  %17 = load ptr, ptr %11, align 8, !tbaa !71
  %18 = getelementptr inbounds nuw ptr, ptr %17, i64 %16
  %19 = load ptr, ptr %18, align 8, !tbaa !72
  %20 = getelementptr inbounds nuw i8, ptr %19, i64 64
  %21 = load i32, ptr %20, align 8, !tbaa !4
  %.not129 = icmp eq i32 %21, %4
  br i1 %.not129, label %.lr.ph135, label %.thread

22:                                               ; preds = %51
  %23 = load ptr, ptr %54, align 8, !tbaa !71
  %24 = getelementptr inbounds nuw ptr, ptr %23, i64 %indvars.iv.next
  %25 = load ptr, ptr %24, align 8, !tbaa !72
  %26 = getelementptr inbounds nuw i8, ptr %25, i64 64
  %27 = load i32, ptr %26, align 8, !tbaa !4
  %.not = icmp eq i32 %27, %4
  br i1 %.not, label %.lr.ph135, label %.thread.loopexit

.lr.ph135:                                        ; preds = %.lr.ph, %22
  %28 = phi ptr [ %25, %22 ], [ %19, %.lr.ph ]
  %.04279134 = phi i32 [ 1, %22 ], [ 0, %.lr.ph ]
  %.not6480133 = phi i1 [ true, %22 ], [ false, %.lr.ph ]
  %.03381132 = phi i32 [ %.235, %22 ], [ 0, %.lr.ph ]
  %.03282131 = phi i32 [ %.2, %22 ], [ 0, %.lr.ph ]
  %indvars.iv130 = phi i64 [ %indvars.iv.next, %22 ], [ %16, %.lr.ph ]
  %29 = phi ptr [ %52, %22 ], [ %9, %.lr.ph ]
  %30 = getelementptr inbounds nuw i8, ptr %28, i64 108
  %bcmp = tail call i32 @bcmp(ptr nonnull %30, ptr nonnull %0, i64 %15)
  %.not54 = icmp eq i32 %bcmp, 0
  br i1 %.not54, label %31, label %.thread.loopexit

31:                                               ; preds = %.lr.ph135
  %indvars.iv.next = add nuw nsw i64 %indvars.iv130, 1
  %32 = getelementptr inbounds nuw i8, ptr %28, i64 52
  %33 = load i32, ptr %32, align 4, !tbaa !4
  %34 = icmp eq i32 %33, 16384
  br i1 %34, label %.thread.loopexit, label %35

35:                                               ; preds = %31
  %36 = load i32, ptr @ignore_skip_worktree, align 4, !tbaa !4
  %.not55 = icmp ne i32 %36, 0
  %37 = getelementptr inbounds nuw i8, ptr %28, i64 56
  %38 = load i32, ptr %37, align 8, !tbaa !4
  %39 = and i32 %38, 1073741824
  %.not56 = icmp eq i32 %39, 0
  %or.cond128 = select i1 %.not55, i1 true, i1 %.not56
  br i1 %or.cond128, label %._crit_edge, label %.thread.loopexit

._crit_edge:                                      ; preds = %35
  %40 = lshr i32 %38, 12
  %41 = and i32 %40, 3
  %42 = load i32, ptr @checkout_stage, align 4, !tbaa !4
  %.not57 = icmp eq i32 %41, %42
  br i1 %.not57, label %44, label %43

43:                                               ; preds = %._crit_edge
  %.not58 = icmp ne i32 %42, 4
  %.not59 = icmp eq i32 %41, 0
  %or.cond67 = or i1 %.not58, %.not59
  br i1 %or.cond67, label %51, label %44, !llvm.loop !78

44:                                               ; preds = %43, %._crit_edge
  %45 = load i32, ptr @to_tempfile, align 4, !tbaa !4
  %.not60 = icmp eq i32 %45, 0
  %46 = zext nneg i32 %41 to i64
  %47 = getelementptr inbounds nuw [4 x [26 x i8]], ptr @topath, i64 0, i64 %46
  %48 = select i1 %.not60, ptr null, ptr %47
  %49 = tail call i32 @checkout_entry_ca(ptr noundef nonnull %28, ptr noundef null, ptr noundef nonnull @state, ptr noundef %48, ptr noundef null) #13
  %50 = lshr i32 %49, 31
  %spec.select68 = add i32 %50, %.03282131
  %.pre111 = load ptr, ptr @the_repository, align 8, !tbaa !21
  br label %51

51:                                               ; preds = %43, %44
  %52 = phi ptr [ %.pre111, %44 ], [ %29, %43 ]
  %.235 = phi i32 [ 1, %44 ], [ %.03381132, %43 ]
  %.2 = phi i32 [ %spec.select68, %44 ], [ %.03282131, %43 ]
  %53 = getelementptr inbounds nuw i8, ptr %52, i64 384
  %54 = load ptr, ptr %53, align 8, !tbaa !41
  %55 = getelementptr inbounds nuw i8, ptr %54, i64 12
  %56 = load i32, ptr %55, align 4, !tbaa !60
  %57 = zext i32 %56 to i64
  %58 = icmp samesign ult i64 %indvars.iv.next, %57
  br i1 %58, label %22, label %.thread.loopexit

.thread.loopexit:                                 ; preds = %35, %51, %.lr.ph135, %22, %31
  %.not64.lcssa.ph.ph = phi i1 [ %.not6480133, %31 ], [ true, %22 ], [ %.not6480133, %.lr.ph135 ], [ true, %51 ], [ %.not6480133, %35 ]
  %.033.lcssa.ph.ph = phi i32 [ %.03381132, %31 ], [ %.235, %22 ], [ %.03381132, %.lr.ph135 ], [ %.235, %51 ], [ %.03381132, %35 ]
  %.032.lcssa.ph.ph = phi i32 [ %.03282131, %31 ], [ %.2, %22 ], [ %.03282131, %.lr.ph135 ], [ %.2, %51 ], [ %.03282131, %35 ]
  %.143.ph.ph = phi i1 [ true, %31 ], [ true, %22 ], [ %.not6480133, %.lr.ph135 ], [ true, %51 ], [ true, %35 ]
  %.140.ph.ph = phi i32 [ %.04279134, %31 ], [ 1, %22 ], [ %.04279134, %.lr.ph135 ], [ 1, %51 ], [ 1, %35 ]
  %59 = icmp eq i32 %.033.lcssa.ph.ph, 0
  %60 = icmp sgt i32 %.032.lcssa.ph.ph, 0
  %61 = sext i1 %60 to i32
  %62 = icmp eq i32 %.140.ph.ph, 0
  br label %.thread

.thread:                                          ; preds = %.thread.loopexit, %.lr.ph
  %.not64.lcssa.ph = phi i1 [ false, %.lr.ph ], [ %.not64.lcssa.ph.ph, %.thread.loopexit ]
  %.033.lcssa.ph = phi i1 [ true, %.lr.ph ], [ %59, %.thread.loopexit ]
  %.032.lcssa.ph = phi i32 [ 0, %.lr.ph ], [ %61, %.thread.loopexit ]
  %.143.ph = phi i1 [ false, %.lr.ph ], [ %.143.ph.ph, %.thread.loopexit ]
  %.140.ph = phi i1 [ true, %.lr.ph ], [ %62, %.thread.loopexit ]
  br i1 %.033.lcssa.ph, label %66, label %63

63:                                               ; preds = %.thread
  %64 = load i32, ptr @to_tempfile, align 4, !tbaa !4
  %.not66 = icmp eq i32 %64, 0
  br i1 %.not66, label %95, label %65

65:                                               ; preds = %63
  tail call fastcc void @write_tempfile_record(ptr noundef nonnull %0, ptr noundef %1)
  br label %95

66:                                               ; preds = %.thread
  %67 = load i32, ptr @checkout_stage, align 4
  %68 = icmp eq i32 %67, 4
  %or.cond = select i1 %.143.ph, i1 %68, i1 false
  br i1 %or.cond, label %95, label %.thread120

.thread120:                                       ; preds = %2, %66
  %.not64.lcssa117127 = phi i1 [ %.not64.lcssa.ph, %66 ], [ false, %2 ]
  %.143118126 = phi i1 [ %.143.ph, %66 ], [ false, %2 ]
  %.140119125 = phi i1 [ %.140.ph, %66 ], [ true, %2 ]
  %69 = load i8, ptr getelementptr inbounds nuw (i8, ptr @state, i64 120), align 8
  %70 = and i8 %69, 2
  %.not62 = icmp eq i8 %70, 0
  br i1 %.not62, label %71, label %95

71:                                               ; preds = %.thread120
  %72 = load ptr, ptr @stderr, align 8, !tbaa !52
  %73 = tail call i32 (ptr, ptr, ...) @fprintf(ptr noundef %72, ptr noundef nonnull @.str.38, ptr noundef nonnull %0) #16
  br i1 %.143118126, label %77, label %74

74:                                               ; preds = %71
  %75 = load ptr, ptr @stderr, align 8, !tbaa !52
  %76 = tail call i64 @fwrite(ptr nonnull @.str.39, i64 19, i64 1, ptr %75) #17
  br label %92

77:                                               ; preds = %71
  br i1 %.140119125, label %78, label %81

78:                                               ; preds = %77
  %79 = load ptr, ptr @stderr, align 8, !tbaa !52
  %80 = tail call i64 @fwrite(ptr nonnull @.str.40, i64 21, i64 1, ptr %79) #17
  br label %92

81:                                               ; preds = %77
  br i1 %.not64.lcssa117127, label %85, label %82

82:                                               ; preds = %81
  %83 = load ptr, ptr @stderr, align 8, !tbaa !52
  %84 = tail call i64 @fwrite(ptr nonnull @.str.41, i64 72, i64 1, ptr %83) #17
  br label %92

85:                                               ; preds = %81
  %86 = load i32, ptr @checkout_stage, align 4, !tbaa !4
  %.not65 = icmp eq i32 %86, 0
  %87 = load ptr, ptr @stderr, align 8, !tbaa !52
  br i1 %.not65, label %90, label %88

88:                                               ; preds = %85
  %89 = tail call i32 (ptr, ptr, ...) @fprintf(ptr noundef %87, ptr noundef nonnull @.str.42, i32 noundef %86) #16
  br label %92

90:                                               ; preds = %85
  %91 = tail call i64 @fwrite(ptr nonnull @.str.43, i64 11, i64 1, ptr %87) #17
  br label %92

92:                                               ; preds = %78, %88, %90, %82, %74
  %93 = load ptr, ptr @stderr, align 8, !tbaa !52
  %94 = tail call i32 @fputc(i32 noundef 10, ptr noundef %93)
  br label %95

95:                                               ; preds = %63, %65, %.thread120, %92, %66
  %.031 = phi i32 [ 0, %66 ], [ -1, %92 ], [ -1, %.thread120 ], [ %.032.lcssa.ph, %65 ], [ %.032.lcssa.ph, %63 ]
  ret i32 %.031
}